; Function Attrs: mustprogress uwtable
define void @_ZN6google8protobuf8internal12ExtensionSet5ClearEv(ptr nocapture noundef nonnull readonly align 8 dereferenceable(24) %0) local_unnamed_addr #8 align 2 {
  %2 = getelementptr inbounds i8, ptr %0, i64 8
  %3 = load i16, ptr %2, align 8
  %4 = icmp ugt i16 %3, 256
  %5 = getelementptr inbounds i8, ptr %0, i64 16
  %6 = load ptr, ptr %5, align 8
  br i1 %4, label %7, label %13

7:                                                ; preds = %1
  %8 = getelementptr inbounds i8, ptr %6, i64 24
  %9 = load ptr, ptr %8, align 8
  %10 = getelementptr inbounds i8, ptr %6, i64 8
  %.not5.i.i = icmp eq ptr %9, %10
  br i1 %.not5.i.i, label %"_ZN6google8protobuf8internal12ExtensionSet7ForEachIZNS2_5ClearEvE3$_0EET_S5_.exit", label %.lr.ph.i.i

.lr.ph.i.i:                                       ; preds = %7, %.lr.ph.i.i
  %.sroa.0.06.i.i = phi ptr [ %12, %.lr.ph.i.i ], [ %9, %7 ]
  %11 = getelementptr inbounds i8, ptr %.sroa.0.06.i.i, i64 40
  tail call void @_ZN6google8protobuf8internal12ExtensionSet9Extension5ClearEv(ptr noundef nonnull align 8 dereferenceable(24) %11)
  %12 = tail call noundef ptr @_ZSt18_Rb_tree_incrementPSt18_Rb_tree_node_base(ptr noundef %.sroa.0.06.i.i) #27
  %.not.i.i = icmp eq ptr %12, %10
  br i1 %.not.i.i, label %"_ZN6google8protobuf8internal12ExtensionSet7ForEachIZNS2_5ClearEvE3$_0EET_S5_.exit", label %.lr.ph.i.i, !llvm.loop !19

13:                                               ; preds = %1
  %14 = getelementptr inbounds i8, ptr %0, i64 10
  %15 = load i16, ptr %14, align 2
  %16 = zext i16 %15 to i64
  %17 = getelementptr inbounds %"struct.google::protobuf::internal::ExtensionSet::KeyValue", ptr %6, i64 %16
  %.not6.i.i = icmp eq i16 %15, 0
  br i1 %.not6.i.i, label %"_ZN6google8protobuf8internal12ExtensionSet7ForEachIZNS2_5ClearEvE3$_0EET_S5_.exit", label %.lr.ph.i2.i

.lr.ph.i2.i:                                      ; preds = %13, %.lr.ph.i2.i
  %.07.i.i = phi ptr [ %19, %.lr.ph.i2.i ], [ %6, %13 ]
  %18 = getelementptr inbounds i8, ptr %.07.i.i, i64 8
  tail call void @_ZN6google8protobuf8internal12ExtensionSet9Extension5ClearEv(ptr noundef nonnull align 8 dereferenceable(24) %18)
  %19 = getelementptr inbounds i8, ptr %.07.i.i, i64 32
  %.not.i3.i = icmp eq ptr %19, %17
  br i1 %.not.i3.i, label %"_ZN6google8protobuf8internal12ExtensionSet7ForEachIZNS2_5ClearEvE3$_0EET_S5_.exit", label %.lr.ph.i2.i, !llvm.loop !20

"_ZN6google8protobuf8internal12ExtensionSet7ForEachIZNS2_5ClearEvE3$_0EET_S5_.exit": ; preds = %.lr.ph.i2.i, %.lr.ph.i.i, %7, %13
  ret void
}